; Function Attrs: mustprogress uwtable
define internal noundef zeroext i1 @"_ZNSt17_Function_handlerIFvvEZN8facebook6hermes7tracing24makeTracingHermesRuntimeESt10unique_ptrINS2_13HermesRuntimeESt14default_deleteIS5_EERKN6hermes2vm13RuntimeConfigERKNSt7__cxx1112basic_stringIcSt11char_traitsIcESaIcEEESL_St8functionIFbvEEE3$_1E10_M_managerERSt9_Any_dataRKSR_St18_Manager_operation"(ptr nocapture noundef nonnull align 8 dereferenceable(16) %__dest, ptr nocapture noundef nonnull readonly align 8 dereferenceable(16) %__source, i32 noundef %__op) #0 align 2 personality ptr @__gxx_personality_v0 {
entry:
  switch i32 %__op, label %sw.epilog [
    i32 0, label %sw.bb
    i32 1, label %sw.bb1
    i32 3, label %sw.bb6.i
    i32 2, label %sw.bb4.i
  ]

sw.bb:                                            ; preds = %entry
  store ptr @"_ZTIZN8facebook6hermes7tracing24makeTracingHermesRuntimeESt10unique_ptrINS0_13HermesRuntimeESt14default_deleteIS3_EERKN6hermes2vm13RuntimeConfigERKNSt7__cxx1112basic_stringIcSt11char_traitsIcESaIcEEESJ_St8functionIFbvEEE3$_1", ptr %__dest, align 8
  br label %sw.epilog

sw.bb1:                                           ; preds = %entry
  %__source.val = load ptr, ptr %__source, align 8
  store ptr %__source.val, ptr %__dest, align 8
  br label %sw.epilog

sw.bb4.i:                                         ; preds = %entry
  %__source.val5 = load ptr, ptr %__source, align 8
  %call.i.i.i = tail call noalias noundef nonnull dereferenceable(32) ptr @_Znwm(i64 noundef 32) #30
  invoke void @_ZNSt7__cxx1112basic_stringIcSt11char_traitsIcESaIcEEC1ERKS4_(ptr noundef nonnull align 8 dereferenceable(32) %call.i.i.i, ptr noundef nonnull align 8 dereferenceable(32) %__source.val5)
          to label %"_ZNSt14_Function_base13_Base_managerIZN8facebook6hermes7tracing24makeTracingHermesRuntimeESt10unique_ptrINS2_13HermesRuntimeESt14default_deleteIS5_EERKN6hermes2vm13RuntimeConfigERKNSt7__cxx1112basic_stringIcSt11char_traitsIcESaIcEEESL_St8functionIFbvEEE3$_1E15_M_init_functorIRKSP_EEvRSt9_Any_dataOT_.exit.i" unwind label %lpad.i.i.i

lpad.i.i.i:                                       ; preds = %sw.bb4.i
  %0 = landingpad { ptr, i32 }
          cleanup
  tail call void @_ZdlPv(ptr noundef nonnull %call.i.i.i) #28
  resume { ptr, i32 } %0

"_ZNSt14_Function_base13_Base_managerIZN8facebook6hermes7tracing24makeTracingHermesRuntimeESt10unique_ptrINS2_13HermesRuntimeESt14default_deleteIS5_EERKN6hermes2vm13RuntimeConfigERKNSt7__cxx1112basic_stringIcSt11char_traitsIcESaIcEEESL_St8functionIFbvEEE3$_1E15_M_init_functorIRKSP_EEvRSt9_Any_dataOT_.exit.i": ; preds = %sw.bb4.i
  store ptr %call.i.i.i, ptr %__dest, align 8
  br label %sw.epilog

sw.bb6.i:                                         ; preds = %entry
  %__dest.val.i = load ptr, ptr %__dest, align 8
  %isnull.i.i = icmp eq ptr %__dest.val.i, null
  br i1 %isnull.i.i, label %sw.epilog, label %delete.notnull.i.i

delete.notnull.i.i:                               ; preds = %sw.bb6.i
  tail call void @_ZNSt7__cxx1112basic_stringIcSt11char_traitsIcESaIcEED1Ev(ptr noundef nonnull align 8 dereferenceable(32) %__dest.val.i) #27
  tail call void @_ZdlPv(ptr noundef nonnull %__dest.val.i) #28
  br label %sw.epilog

sw.epilog:                                        ; preds = %entry, %delete.notnull.i.i, %sw.bb6.i, %"_ZNSt14_Function_base13_Base_managerIZN8facebook6hermes7tracing24makeTracingHermesRuntimeESt10unique_ptrINS2_13HermesRuntimeESt14default_deleteIS5_EERKN6hermes2vm13RuntimeConfigERKNSt7__cxx1112basic_stringIcSt11char_traitsIcESaIcEEESL_St8functionIFbvEEE3$_1E15_M_init_functorIRKSP_EEvRSt9_Any_dataOT_.exit.i", %sw.bb1, %sw.bb
  ret i1 false
}